target datalayout = "e-m:e-p270:32:32-p271:32:32-p272:64:64-i64:64-i128:128-f80:128-n8:16:32:64-S128"
target triple = "x86_64-pc-linux-gnu"

%struct.AVChannelLayout = type { i32, i32, %union.anon, ptr }
%union.anon = type { i64 }

; Function Attrs: nounwind uwtable
define i32 @av_channel_layout_compare(ptr noundef %0, ptr noundef %1) #0 {
  %3 = alloca i32, align 4
  %4 = alloca ptr, align 8
  %5 = alloca ptr, align 8
  %6 = alloca i32, align 4
  %7 = alloca i32, align 4
  store ptr %0, ptr %4, align 8, !tbaa !23
  store ptr %1, ptr %5, align 8, !tbaa !23
  call void @llvm.lifetime.start.p0(i64 4, ptr %6) #11
  %8 = load ptr, ptr %4, align 8, !tbaa !23
  %9 = getelementptr inbounds nuw %struct.AVChannelLayout, ptr %8, i32 0, i32 1
  %10 = load i32, ptr %9, align 4, !tbaa !32
  %11 = load ptr, ptr %5, align 8, !tbaa !23
  %12 = getelementptr inbounds nuw %struct.AVChannelLayout, ptr %11, i32 0, i32 1
  %13 = load i32, ptr %12, align 4, !tbaa !32
  %14 = icmp ne i32 %10, %13
  br i1 %14, label %15, label %16

15:                                               ; preds = %2
  store i32 1, ptr %3, align 4
  store i32 1, ptr %7, align 4
  br label %84

16:                                               ; preds = %2
  %17 = load ptr, ptr %4, align 8, !tbaa !23
  %18 = getelementptr inbounds nuw %struct.AVChannelLayout, ptr %17, i32 0, i32 0
  %19 = load i32, ptr %18, align 8, !tbaa !30
  %20 = icmp eq i32 %19, 0
  %21 = zext i1 %20 to i32
  %22 = load ptr, ptr %5, align 8, !tbaa !23
  %23 = getelementptr inbounds nuw %struct.AVChannelLayout, ptr %22, i32 0, i32 0
  %24 = load i32, ptr %23, align 8, !tbaa !30
  %25 = icmp eq i32 %24, 0
  %26 = zext i1 %25 to i32
  %27 = icmp ne i32 %21, %26
  br i1 %27, label %28, label %29

28:                                               ; preds = %16
  store i32 1, ptr %3, align 4
  store i32 1, ptr %7, align 4
  br label %84

29:                                               ; preds = %16
  %30 = load ptr, ptr %4, align 8, !tbaa !23
  %31 = getelementptr inbounds nuw %struct.AVChannelLayout, ptr %30, i32 0, i32 0
  %32 = load i32, ptr %31, align 8, !tbaa !30
  %33 = icmp eq i32 %32, 0
  br i1 %33, label %34, label %35

34:                                               ; preds = %29
  store i32 0, ptr %3, align 4
  store i32 1, ptr %7, align 4
  br label %84

35:                                               ; preds = %29
  br label %36

36:                                               ; preds = %35
  %37 = load ptr, ptr %4, align 8, !tbaa !23
  %38 = getelementptr inbounds nuw %struct.AVChannelLayout, ptr %37, i32 0, i32 0
  %39 = load i32, ptr %38, align 8, !tbaa !30
  %40 = icmp eq i32 %39, 1
  br i1 %40, label %46, label %41

41:                                               ; preds = %36
  %42 = load ptr, ptr %4, align 8, !tbaa !23
  %43 = getelementptr inbounds nuw %struct.AVChannelLayout, ptr %42, i32 0, i32 0
  %44 = load i32, ptr %43, align 8, !tbaa !30
  %45 = icmp eq i32 %44, 3
  br i1 %45, label %46, label %63

46:                                               ; preds = %41, %36
  %47 = load ptr, ptr %4, align 8, !tbaa !23
  %48 = getelementptr inbounds nuw %struct.AVChannelLayout, ptr %47, i32 0, i32 0
  %49 = load i32, ptr %48, align 8, !tbaa !30
  %50 = load ptr, ptr %5, align 8, !tbaa !23
  %51 = getelementptr inbounds nuw %struct.AVChannelLayout, ptr %50, i32 0, i32 0
  %52 = load i32, ptr %51, align 8, !tbaa !30
  %53 = icmp eq i32 %49, %52
  br i1 %53, label %54, label %63

54:                                               ; preds = %46
  %55 = load ptr, ptr %4, align 8, !tbaa !23
  %56 = getelementptr inbounds nuw %struct.AVChannelLayout, ptr %55, i32 0, i32 2
  %57 = load i64, ptr %56, align 8, !tbaa !22
  %58 = load ptr, ptr %5, align 8, !tbaa !23
  %59 = getelementptr inbounds nuw %struct.AVChannelLayout, ptr %58, i32 0, i32 2
  %60 = load i64, ptr %59, align 8, !tbaa !22
  %61 = icmp ne i64 %57, %60
  %62 = zext i1 %61 to i32
  store i32 %62, ptr %3, align 4
  store i32 1, ptr %7, align 4
  br label %84

63:                                               ; preds = %46, %41
  store i32 0, ptr %6, align 4, !tbaa !9
  br label %64

64:                                               ; preds = %80, %63
  %65 = load i32, ptr %6, align 4, !tbaa !9
  %66 = load ptr, ptr %4, align 8, !tbaa !23
  %67 = getelementptr inbounds nuw %struct.AVChannelLayout, ptr %66, i32 0, i32 1
  %68 = load i32, ptr %67, align 4, !tbaa !32
  %69 = icmp slt i32 %65, %68
  br i1 %69, label %70, label %83

70:                                               ; preds = %64
  %71 = load ptr, ptr %4, align 8, !tbaa !23
  %72 = load i32, ptr %6, align 4, !tbaa !9
  %73 = call i32 @av_channel_layout_channel_from_index(ptr noundef %71, i32 noundef %72)
  %74 = load ptr, ptr %5, align 8, !tbaa !23
  %75 = load i32, ptr %6, align 4, !tbaa !9
  %76 = call i32 @av_channel_layout_channel_from_index(ptr noundef %74, i32 noundef %75)
  %77 = icmp ne i32 %73, %76
  br i1 %77, label %78, label %79

78:                                               ; preds = %70
  store i32 1, ptr %3, align 4
  store i32 1, ptr %7, align 4
  br label %84

79:                                               ; preds = %70
  br label %80

80:                                               ; preds = %79
  %81 = load i32, ptr %6, align 4, !tbaa !9
  %82 = add nsw i32 %81, 1
  store i32 %82, ptr %6, align 4, !tbaa !9
  br label %64, !llvm.loop !53

83:                                               ; preds = %64
  store i32 0, ptr %3, align 4
  store i32 1, ptr %7, align 4
  br label %84

84:                                               ; preds = %83, %78, %54, %34, %28, %15
  call void @llvm.lifetime.end.p0(i64 4, ptr %6) #11
  %85 = load i32, ptr %3, align 4
  ret i32 %85
}