; Function Attrs: nofree norecurse nosync nounwind memory(read, inaccessiblemem: none) uwtable
define range(i32 0, 2) i32 @av_channel_layout_compare(ptr noundef readonly captures(none) %0, ptr noundef readonly captures(none) %1) local_unnamed_addr #9 {
  %3 = getelementptr inbounds nuw i8, ptr %0, i64 4
  %4 = load i32, ptr %3, align 4, !tbaa !20
  %5 = getelementptr inbounds nuw i8, ptr %1, i64 4
  %6 = load i32, ptr %5, align 4, !tbaa !20
  %.not = icmp eq i32 %4, %6
  br i1 %.not, label %7, label %.loopexit

7:                                                ; preds = %2
  %8 = load i32, ptr %0, align 8, !tbaa !18
  %9 = icmp eq i32 %8, 0
  %10 = load i32, ptr %1, align 8, !tbaa !18
  %11 = icmp eq i32 %10, 0
  %.not20.not = xor i1 %9, %11
  %brmerge = or i1 %9, %11
  br i1 %brmerge, label %.loopexit, label %12

12:                                               ; preds = %7
  switch i32 %8, label %21 [
    i32 1, label %13
    i32 3, label %13
  ]

13:                                               ; preds = %12, %12
  %14 = icmp eq i32 %8, %10
  br i1 %14, label %15, label %21

15:                                               ; preds = %13
  %16 = getelementptr inbounds nuw i8, ptr %0, i64 8
  %17 = load i64, ptr %16, align 8, !tbaa !17
  %18 = getelementptr inbounds nuw i8, ptr %1, i64 8
  %19 = load i64, ptr %18, align 8, !tbaa !17
  %20 = icmp ne i64 %17, %19
  br label %.loopexit

21:                                               ; preds = %12, %13
  %22 = icmp sgt i32 %4, 0
  br i1 %22, label %.lr.ph, label %.loopexit

.lr.ph:                                           ; preds = %21, %.lr.ph
  %.022 = phi i32 [ %25, %.lr.ph ], [ 0, %21 ]
  %23 = tail call i32 @av_channel_layout_channel_from_index(ptr noundef nonnull %0, i32 noundef %.022)
  %24 = tail call i32 @av_channel_layout_channel_from_index(ptr noundef nonnull %1, i32 noundef %.022)
  %.not21.not = icmp ne i32 %23, %24
  %25 = add nuw nsw i32 %.022, 1
  %exitcond.not = icmp eq i32 %25, %4
  %or.cond = select i1 %.not21.not, i1 true, i1 %exitcond.not
  br i1 %or.cond, label %.loopexit, label %.lr.ph, !llvm.loop !46

.loopexit:                                        ; preds = %.lr.ph, %21, %7, %2, %15
  %.018.shrunk = phi i1 [ %20, %15 ], [ true, %2 ], [ %.not20.not, %7 ], [ false, %21 ], [ %.not21.not, %.lr.ph ]
  %.018 = zext i1 %.018.shrunk to i32
  ret i32 %.018
}